target datalayout = "e-m:e-p270:32:32-p271:32:32-p272:64:64-i64:64-i128:128-f80:128-n8:16:32:64-S128"
target triple = "x86_64-pc-linux-gnu"

%class.Type = type { i32, ptr, i32, %"class.std::vector.8", %"class.std::vector.13", i32, i8, i8, i8, i8, i8, %"class.std::vector.18", %"class.std::vector.23" }
%"class.std::vector.8" = type { %"struct.std::_Vector_base.9" }
%"struct.std::_Vector_base.9" = type { %"struct.std::_Vector_base<unsigned int, std::allocator<unsigned int>>::_Vector_impl" }
%"struct.std::_Vector_base<unsigned int, std::allocator<unsigned int>>::_Vector_impl" = type { %"struct.std::_Vector_base<unsigned int, std::allocator<unsigned int>>::_Vector_impl_data" }
%"struct.std::_Vector_base<unsigned int, std::allocator<unsigned int>>::_Vector_impl_data" = type { ptr, ptr, ptr }
%"class.std::vector.13" = type { %"struct.std::_Vector_base.14" }
%"struct.std::_Vector_base.14" = type { %"struct.std::_Vector_base<const Type *, std::allocator<const Type *>>::_Vector_impl" }
%"struct.std::_Vector_base<const Type *, std::allocator<const Type *>>::_Vector_impl" = type { %"struct.std::_Vector_base<const Type *, std::allocator<const Type *>>::_Vector_impl_data" }
%"struct.std::_Vector_base<const Type *, std::allocator<const Type *>>::_Vector_impl_data" = type { ptr, ptr, ptr }
%"class.std::vector.18" = type { %"struct.std::_Vector_base.19" }
%"struct.std::_Vector_base.19" = type { %"struct.std::_Vector_base<CVQualifiers, std::allocator<CVQualifiers>>::_Vector_impl" }
%"struct.std::_Vector_base<CVQualifiers, std::allocator<CVQualifiers>>::_Vector_impl" = type { %"struct.std::_Vector_base<CVQualifiers, std::allocator<CVQualifiers>>::_Vector_impl_data" }
%"struct.std::_Vector_base<CVQualifiers, std::allocator<CVQualifiers>>::_Vector_impl_data" = type { ptr, ptr, ptr }
%"class.std::vector.23" = type { %"struct.std::_Vector_base.24" }
%"struct.std::_Vector_base.24" = type { %"struct.std::_Vector_base<int, std::allocator<int>>::_Vector_impl" }
%"struct.std::_Vector_base<int, std::allocator<int>>::_Vector_impl" = type { %"struct.std::_Vector_base<int, std::allocator<int>>::_Vector_impl_data" }
%"struct.std::_Vector_base<int, std::allocator<int>>::_Vector_impl_data" = type { ptr, ptr, ptr }
%class.CVQualifiers = type { ptr, i8, i8, %"class.std::vector.28", %"class.std::vector.28" }
%"class.std::vector.28" = type { %"struct.std::_Bvector_base" }
%"struct.std::_Bvector_base" = type { %"struct.std::_Bvector_base<std::allocator<bool>>::_Bvector_impl" }
%"struct.std::_Bvector_base<std::allocator<bool>>::_Bvector_impl" = type { %"struct.std::_Bvector_base<std::allocator<bool>>::_Bvector_impl_data" }
%"struct.std::_Bvector_base<std::allocator<bool>>::_Bvector_impl_data" = type { %"struct.std::_Bit_iterator", %"struct.std::_Bit_iterator", ptr }
%"struct.std::_Bit_iterator" = type { %"struct.std::_Bit_iterator_base.base", [4 x i8] }
%"struct.std::_Bit_iterator_base.base" = type <{ ptr, i32 }>

; Function Attrs: mustprogress uwtable
define linkonce_odr dso_local noundef zeroext i1 @_ZNK12CVQualifiers8is_constEv(ptr noundef nonnull align 8 dereferenceable(96) %0) #5 comdat align 2 {
  %2 = alloca ptr, align 8
  store ptr %0, ptr %2, align 8
  %3 = load ptr, ptr %2, align 8
  %4 = call noundef zeroext i1 @_ZNK12CVQualifiers20is_const_after_derefEi(ptr noundef nonnull align 8 dereferenceable(96) %3, i32 noundef 0)
  ret i1 %4
}

; Function Attrs: mustprogress nounwind uwtable
define linkonce_odr dso_local noundef nonnull align 8 dereferenceable(96) ptr @_ZNKSt6vectorI12CVQualifiersSaIS0_EEixEm(ptr noundef nonnull align 8 dereferenceable(24) %0, i64 noundef %1) #4 comdat align 2 {
  %3 = alloca ptr, align 8
  %4 = alloca i64, align 8
  store ptr %0, ptr %3, align 8
  store i64 %1, ptr %4, align 8
  %5 = load ptr, ptr %3, align 8
  %6 = getelementptr inbounds %"struct.std::_Vector_base.19", ptr %5, i32 0, i32 0
  %7 = getelementptr inbounds %"struct.std::_Vector_base<CVQualifiers, std::allocator<CVQualifiers>>::_Vector_impl_data", ptr %6, i32 0, i32 0
  %8 = load ptr, ptr %7, align 8
  %9 = load i64, ptr %4, align 8
  %10 = getelementptr inbounds %class.CVQualifiers, ptr %8, i64 %9
  ret ptr %10
}

; Function Attrs: mustprogress nounwind uwtable
define linkonce_odr dso_local noundef nonnull align 8 dereferenceable(8) ptr @_ZNKSt6vectorIPK4TypeSaIS2_EEixEm(ptr noundef nonnull align 8 dereferenceable(24) %0, i64 noundef %1) #4 comdat align 2 {
  %3 = alloca ptr, align 8
  %4 = alloca i64, align 8
  store ptr %0, ptr %3, align 8
  store i64 %1, ptr %4, align 8
  %5 = load ptr, ptr %3, align 8
  %6 = getelementptr inbounds %"struct.std::_Vector_base.14", ptr %5, i32 0, i32 0
  %7 = getelementptr inbounds %"struct.std::_Vector_base<const Type *, std::allocator<const Type *>>::_Vector_impl_data", ptr %6, i32 0, i32 0
  %8 = load ptr, ptr %7, align 8
  %9 = load i64, ptr %4, align 8
  %10 = getelementptr inbounds ptr, ptr %8, i64 %9
  ret ptr %10
}

; Function Attrs: mustprogress nounwind uwtable
define linkonce_odr dso_local noundef i64 @_ZNKSt6vectorIPK4TypeSaIS2_EE4sizeEv(ptr noundef nonnull align 8 dereferenceable(24) %0) #4 comdat align 2 {
  %2 = alloca ptr, align 8
  store ptr %0, ptr %2, align 8
  %3 = load ptr, ptr %2, align 8
  %4 = getelementptr inbounds %"struct.std::_Vector_base.14", ptr %3, i32 0, i32 0
  %5 = getelementptr inbounds %"struct.std::_Vector_base<const Type *, std::allocator<const Type *>>::_Vector_impl_data", ptr %4, i32 0, i32 1
  %6 = load ptr, ptr %5, align 8
  %7 = getelementptr inbounds %"struct.std::_Vector_base.14", ptr %3, i32 0, i32 0
  %8 = getelementptr inbounds %"struct.std::_Vector_base<const Type *, std::allocator<const Type *>>::_Vector_impl_data", ptr %7, i32 0, i32 0
  %9 = load ptr, ptr %8, align 8
  %10 = ptrtoint ptr %6 to i64
  %11 = ptrtoint ptr %9 to i64
  %12 = sub i64 %10, %11
  %13 = sdiv exact i64 %12, 8
  ret i64 %13
}

; Function Attrs: mustprogress nounwind uwtable
define linkonce_odr dso_local noundef zeroext i1 @_ZNK4Type12is_aggregateEv(ptr noundef nonnull align 8 dereferenceable(136) %0) #4 comdat align 2 {
  %2 = alloca ptr, align 8
  store ptr %0, ptr %2, align 8
  %3 = load ptr, ptr %2, align 8
  %4 = getelementptr inbounds %class.Type, ptr %3, i32 0, i32 0
  %5 = load i32, ptr %4, align 8
  %6 = icmp eq i32 %5, 3
  br i1 %6, label %11, label %7

7:                                                ; preds = %1
  %8 = getelementptr inbounds %class.Type, ptr %3, i32 0, i32 0
  %9 = load i32, ptr %8, align 8
  %10 = icmp eq i32 %9, 2
  br label %11

11:                                               ; preds = %7, %1
  %12 = phi i1 [ true, %1 ], [ %10, %7 ]
  ret i1 %12
}

; Function Attrs: mustprogress uwtable
define dso_local noundef zeroext i1 @_ZNK4Type21is_const_struct_unionEv(ptr noundef nonnull align 8 dereferenceable(136) %0) #5 align 2 {
  %2 = alloca i1, align 1
  %3 = alloca ptr, align 8
  %4 = alloca i64, align 8
  %5 = alloca ptr, align 8
  %6 = alloca ptr, align 8
  store ptr %0, ptr %3, align 8
  %7 = load ptr, ptr %3, align 8
  %8 = call noundef zeroext i1 @_ZNK4Type12is_aggregateEv(ptr noundef nonnull align 8 dereferenceable(136) %7)
  br i1 %8, label %10, label %9

9:                                                ; preds = %1
  store i1 false, ptr %2, align 1
  br label %36

10:                                               ; preds = %1
  store i64 0, ptr %4, align 8
  br label %11

11:                                               ; preds = %32, %10
  %12 = load i64, ptr %4, align 8
  %13 = getelementptr inbounds %class.Type, ptr %7, i32 0, i32 4
  %14 = call noundef i64 @_ZNKSt6vectorIPK4TypeSaIS2_EE4sizeEv(ptr noundef nonnull align 8 dereferenceable(24) %13) #3
  %15 = icmp ult i64 %12, %14
  br i1 %15, label %16, label %35

16:                                               ; preds = %11
  %17 = getelementptr inbounds %class.Type, ptr %7, i32 0, i32 4
  %18 = load i64, ptr %4, align 8
  %19 = call noundef nonnull align 8 dereferenceable(8) ptr @_ZNKSt6vectorIPK4TypeSaIS2_EEixEm(ptr noundef nonnull align 8 dereferenceable(24) %17, i64 noundef %18) #3
  %20 = load ptr, ptr %19, align 8
  store ptr %20, ptr %5, align 8
  %21 = load ptr, ptr %5, align 8
  %22 = call noundef zeroext i1 @_ZNK4Type21is_const_struct_unionEv(ptr noundef nonnull align 8 dereferenceable(136) %21)
  br i1 %22, label %23, label %24

23:                                               ; preds = %16
  store i1 true, ptr %2, align 1
  br label %36

24:                                               ; preds = %16
  %25 = getelementptr inbounds %class.Type, ptr %7, i32 0, i32 11
  %26 = load i64, ptr %4, align 8
  %27 = call noundef nonnull align 8 dereferenceable(96) ptr @_ZNKSt6vectorI12CVQualifiersSaIS0_EEixEm(ptr noundef nonnull align 8 dereferenceable(24) %25, i64 noundef %26) #3
  store ptr %27, ptr %6, align 8
  %28 = load ptr, ptr %6, align 8
  %29 = call noundef zeroext i1 @_ZNK12CVQualifiers8is_constEv(ptr noundef nonnull align 8 dereferenceable(96) %28)
  br i1 %29, label %30, label %31

30:                                               ; preds = %24
  store i1 true, ptr %2, align 1
  br label %36

31:                                               ; preds = %24
  br label %32

32:                                               ; preds = %31
  %33 = load i64, ptr %4, align 8
  %34 = add i64 %33, 1
  store i64 %34, ptr %4, align 8
  br label %11, !llvm.loop !12

35:                                               ; preds = %11
  store i1 false, ptr %2, align 1
  br label %36

36:                                               ; preds = %35, %30, %23, %9
  %37 = load i1, ptr %2, align 1
  ret i1 %37
}