; Function Attrs: mustprogress uwtable
define dso_local noundef zeroext i1 @_ZNK4Type21is_const_struct_unionEv(ptr nocapture noundef nonnull readonly align 8 dereferenceable(136) %0) local_unnamed_addr #4 align 2 {
  %2 = load i32, ptr %0, align 8
  %3 = and i32 %2, -2
  %spec.select.i = icmp eq i32 %3, 2
  br i1 %spec.select.i, label %.preheader, label %.loopexit

.preheader:                                       ; preds = %1
  %4 = getelementptr inbounds i8, ptr %0, i64 48
  %5 = getelementptr inbounds i8, ptr %0, i64 56
  %6 = load ptr, ptr %5, align 8
  %7 = load ptr, ptr %4, align 8
  %.not = icmp eq ptr %6, %7
  br i1 %.not, label %.loopexit, label %.lr.ph

.lr.ph:                                           ; preds = %.preheader
  %8 = getelementptr inbounds i8, ptr %0, i64 88
  br label %18

9:                                                ; preds = %23
  %10 = add nuw i64 %.078, 1
  %11 = load ptr, ptr %5, align 8
  %12 = load ptr, ptr %4, align 8
  %13 = ptrtoint ptr %11 to i64
  %14 = ptrtoint ptr %12 to i64
  %15 = sub i64 %13, %14
  %16 = ashr exact i64 %15, 3
  %17 = icmp ult i64 %10, %16
  br i1 %17, label %18, label %.loopexit, !llvm.loop !13

18:                                               ; preds = %.lr.ph, %9
  %19 = phi ptr [ %7, %.lr.ph ], [ %12, %9 ]
  %.078 = phi i64 [ 0, %.lr.ph ], [ %10, %9 ]
  %20 = getelementptr inbounds ptr, ptr %19, i64 %.078
  %21 = load ptr, ptr %20, align 8
  %22 = tail call noundef zeroext i1 @_ZNK4Type21is_const_struct_unionEv(ptr noundef nonnull align 8 dereferenceable(136) %21)
  br i1 %22, label %.loopexit, label %23

23:                                               ; preds = %18
  %24 = load ptr, ptr %8, align 8
  %25 = getelementptr inbounds %class.CVQualifiers, ptr %24, i64 %.078
  %26 = tail call noundef zeroext i1 @_ZNK12CVQualifiers20is_const_after_derefEi(ptr noundef nonnull align 8 dereferenceable(96) %25, i32 noundef 0)
  br i1 %26, label %.loopexit, label %9

.loopexit:                                        ; preds = %18, %23, %9, %.preheader, %1
  %.0 = phi i1 [ false, %1 ], [ false, %.preheader ], [ true, %18 ], [ true, %23 ], [ false, %9 ]
  ret i1 %.0
}